; ModuleID = 'source-C-CXX/59/1167.c'
source_filename = "source-C-CXX/59/1167.c"
target datalayout = "e-m:e-p270:32:32-p271:32:32-p272:64:64-i64:64-f80:128-n8:16:32:64-S128"
target triple = "x86_64-pc-linux-gnu"

@.str = private unnamed_addr constant [3 x i8] c"%d\00", align 1
@.str.1 = private unnamed_addr constant [6 x i8] c"empty\00", align 1
@.str.2 = private unnamed_addr constant [7 x i8] c"%d %d\0A\00", align 1

; Function Attrs: nofree nounwind sspstrong uwtable
define dso_local i32 @main() local_unnamed_addr #0 {
  %1 = alloca i32, align 4
  %2 = bitcast i32* %1 to i8*
  call void @llvm.lifetime.start.p0i8(i64 4, i8* nonnull %2) #3
  %3 = call i32 (i8*, ...) @__isoc99_scanf(i8* getelementptr inbounds ([3 x i8], [3 x i8]* @.str, i64 0, i64 0), i32* nonnull %1)
  %4 = load i32, i32* %1, align 4, !tbaa !5
  %5 = icmp slt i32 %4, 5
  br i1 %5, label %6, label %10

6:                                                ; preds = %0
  %7 = call i32 (i8*, ...) @printf(i8* nonnull dereferenceable(1) getelementptr inbounds ([6 x i8], [6 x i8]* @.str.1, i64 0, i64 0))
  %8 = load i32, i32* %1, align 4, !tbaa !5
  %9 = icmp slt i32 %8, 5
  br i1 %9, label %46, label %10

10:                                               ; preds = %0, %6
  %11 = phi i32 [ %4, %0 ], [ %8, %6 ]
  br label %12

12:                                               ; preds = %10, %40
  %13 = phi i32 [ %41, %40 ], [ %11, %10 ]
  %14 = phi i32 [ %45, %40 ], [ 5, %10 ]
  %15 = phi i32 [ %42, %40 ], [ 3, %10 ]
  %16 = add nuw nsw i32 %15, 2
  br label %17

17:                                               ; preds = %12, %21
  %18 = phi i32 [ %22, %21 ], [ 2, %12 ]
  %19 = urem i32 %15, %18
  %20 = icmp eq i32 %19, 0
  br i1 %20, label %24, label %21

21:                                               ; preds = %17
  %22 = add nuw nsw i32 %18, 1
  %23 = icmp eq i32 %22, %15
  br i1 %23, label %26, label %17, !llvm.loop !9

24:                                               ; preds = %17
  %25 = icmp eq i32 %18, %15
  br i1 %25, label %26, label %40

26:                                               ; preds = %21, %24
  br label %27

27:                                               ; preds = %26, %31
  %28 = phi i32 [ %32, %31 ], [ 2, %26 ]
  %29 = urem i32 %16, %28
  %30 = icmp eq i32 %29, 0
  br i1 %30, label %34, label %31

31:                                               ; preds = %27
  %32 = add nuw i32 %28, 1
  %33 = icmp eq i32 %32, %14
  br i1 %33, label %34, label %27, !llvm.loop !11

34:                                               ; preds = %27, %31
  %35 = phi i32 [ %28, %27 ], [ %14, %31 ]
  %36 = icmp eq i32 %16, %35
  br i1 %36, label %37, label %40

37:                                               ; preds = %34
  %38 = call i32 (i8*, ...) @printf(i8* nonnull dereferenceable(1) getelementptr inbounds ([7 x i8], [7 x i8]* @.str.2, i64 0, i64 0), i32 %15, i32 %16)
  %39 = load i32, i32* %1, align 4, !tbaa !5
  br label %40

40:                                               ; preds = %24, %37, %34
  %41 = phi i32 [ %13, %24 ], [ %39, %37 ], [ %13, %34 ]
  %42 = add nuw nsw i32 %15, 1
  %43 = add nsw i32 %41, -2
  %44 = icmp slt i32 %15, %43
  %45 = add nuw i32 %14, 1
  br i1 %44, label %12, label %46, !llvm.loop !12

46:                                               ; preds = %40, %6
  call void @llvm.lifetime.end.p0i8(i64 4, i8* nonnull %2) #3
  ret i32 0
}

; Function Attrs: argmemonly mustprogress nofree nosync nounwind willreturn
declare void @llvm.lifetime.start.p0i8(i64 immarg, i8* nocapture) #1

; Function Attrs: nofree nounwind
declare noundef i32 @__isoc99_scanf(i8* nocapture noundef readonly, ...) local_unnamed_addr #2

; Function Attrs: nofree nounwind
declare noundef i32 @printf(i8* nocapture noundef readonly, ...) local_unnamed_addr #2

; Function Attrs: argmemonly mustprogress nofree nosync nounwind willreturn
declare void @llvm.lifetime.end.p0i8(i64 immarg, i8* nocapture) #1


!llvm.module.flags = !{!0, !1, !2, !3}
!llvm.ident = !{!4}

!0 = !{i32 1, !"wchar_size", i32 4}
!1 = !{i32 7, !"PIC Level", i32 2}
!2 = !{i32 7, !"PIE Level", i32 2}
!3 = !{i32 7, !"uwtable", i32 1}
!4 = !{!"clang version 13.0.0"}
!5 = !{!6, !6, i64 0}
!6 = !{!"int", !7, i64 0}
!7 = !{!"omnipotent char", !8, i64 0}
!8 = !{!"Simple C/C++ TBAA"}
!9 = distinct !{!9, !10}
!10 = !{!"llvm.loop.mustprogress"}
!11 = distinct !{!11, !10}
!12 = distinct !{!12, !10}
